target datalayout = "e-m:e-p270:32:32-p271:32:32-p272:64:64-i64:64-i128:128-f80:128-n8:16:32:64-S128"
target triple = "x86_64-pc-linux-gnu"

%struct.git_zstream = type { %struct.z_stream_s, i64, i64, i64, i64, ptr, ptr }
%struct.z_stream_s = type { ptr, i32, i64, ptr, i32, i64, ptr, ptr, ptr, ptr, ptr, i32, i64, i64 }

@.str = private unnamed_addr constant [7 x i8] c"1.2.11\00", align 1
@.str.2 = private unnamed_addr constant [11 x i8] c"no message\00", align 1
@.str.3 = private unnamed_addr constant [22 x i8] c"inflateInit2: %s (%s)\00", align 1
@.str.11 = private unnamed_addr constant [11 x i8] c"git-zlib.c\00", align 1
@.str.12 = private unnamed_addr constant [19 x i8] c"total_out mismatch\00", align 1
@.str.13 = private unnamed_addr constant [18 x i8] c"total_in mismatch\00", align 1

; Function Attrs: inlinehint nounwind uwtable
define internal i32 @zlib_buf_cap(i64 noundef %0) #4 {
  %2 = alloca i64, align 8
  store i64 %0, ptr %2, align 8, !tbaa !29
  %3 = load i64, ptr %2, align 8, !tbaa !29
  %4 = icmp ult i64 1073741824, %3
  br i1 %4, label %5, label %6

5:                                                ; preds = %1
  br label %8

6:                                                ; preds = %1
  %7 = load i64, ptr %2, align 8, !tbaa !29
  br label %8

8:                                                ; preds = %6, %5
  %9 = phi i64 [ 1073741824, %5 ], [ %7, %6 ]
  %10 = trunc i64 %9 to i32
  ret i32 %10
}

; Function Attrs: nounwind uwtable
define internal void @zlib_post_call(ptr noundef %0) #0 {
  %2 = alloca ptr, align 8
  %3 = alloca i64, align 8
  %4 = alloca i64, align 8
  store ptr %0, ptr %2, align 8, !tbaa !4
  call void @llvm.lifetime.start.p0(i64 8, ptr %3) #6
  call void @llvm.lifetime.start.p0(i64 8, ptr %4) #6
  %5 = load ptr, ptr %2, align 8, !tbaa !4
  %6 = getelementptr inbounds nuw %struct.git_zstream, ptr %5, i32 0, i32 0
  %7 = getelementptr inbounds nuw %struct.z_stream_s, ptr %6, i32 0, i32 0
  %8 = load ptr, ptr %7, align 8, !tbaa !18
  %9 = load ptr, ptr %2, align 8, !tbaa !4
  %10 = getelementptr inbounds nuw %struct.git_zstream, ptr %9, i32 0, i32 5
  %11 = load ptr, ptr %10, align 8, !tbaa !17
  %12 = ptrtoint ptr %8 to i64
  %13 = ptrtoint ptr %11 to i64
  %14 = sub i64 %12, %13
  store i64 %14, ptr %3, align 8, !tbaa !29
  %15 = load ptr, ptr %2, align 8, !tbaa !4
  %16 = getelementptr inbounds nuw %struct.git_zstream, ptr %15, i32 0, i32 0
  %17 = getelementptr inbounds nuw %struct.z_stream_s, ptr %16, i32 0, i32 3
  %18 = load ptr, ptr %17, align 8, !tbaa !20
  %19 = load ptr, ptr %2, align 8, !tbaa !4
  %20 = getelementptr inbounds nuw %struct.git_zstream, ptr %19, i32 0, i32 6
  %21 = load ptr, ptr %20, align 8, !tbaa !19
  %22 = ptrtoint ptr %18 to i64
  %23 = ptrtoint ptr %21 to i64
  %24 = sub i64 %22, %23
  store i64 %24, ptr %4, align 8, !tbaa !29
  %25 = load ptr, ptr %2, align 8, !tbaa !4
  %26 = getelementptr inbounds nuw %struct.git_zstream, ptr %25, i32 0, i32 0
  %27 = getelementptr inbounds nuw %struct.z_stream_s, ptr %26, i32 0, i32 5
  %28 = load i64, ptr %27, align 8, !tbaa !24
  %29 = load ptr, ptr %2, align 8, !tbaa !4
  %30 = getelementptr inbounds nuw %struct.git_zstream, ptr %29, i32 0, i32 4
  %31 = load i64, ptr %30, align 8, !tbaa !23
  %32 = load i64, ptr %4, align 8, !tbaa !29
  %33 = add i64 %31, %32
  %34 = icmp ne i64 %28, %33
  br i1 %34, label %35, label %36

35:                                               ; preds = %1
  call void (ptr, i32, ptr, ...) @BUG_fl(ptr noundef @.str.11, i32 noundef 56, ptr noundef @.str.12) #7
  unreachable

36:                                               ; preds = %1
  %37 = load ptr, ptr %2, align 8, !tbaa !4
  %38 = getelementptr inbounds nuw %struct.git_zstream, ptr %37, i32 0, i32 0
  %39 = getelementptr inbounds nuw %struct.z_stream_s, ptr %38, i32 0, i32 2
  %40 = load i64, ptr %39, align 8, !tbaa !22
  %41 = load ptr, ptr %2, align 8, !tbaa !4
  %42 = getelementptr inbounds nuw %struct.git_zstream, ptr %41, i32 0, i32 3
  %43 = load i64, ptr %42, align 8, !tbaa !21
  %44 = load i64, ptr %3, align 8, !tbaa !29
  %45 = add i64 %43, %44
  %46 = icmp ne i64 %40, %45
  br i1 %46, label %47, label %48

47:                                               ; preds = %36
  call void (ptr, i32, ptr, ...) @BUG_fl(ptr noundef @.str.11, i32 noundef 58, ptr noundef @.str.13) #7
  unreachable

48:                                               ; preds = %36
  %49 = load ptr, ptr %2, align 8, !tbaa !4
  %50 = getelementptr inbounds nuw %struct.git_zstream, ptr %49, i32 0, i32 0
  %51 = getelementptr inbounds nuw %struct.z_stream_s, ptr %50, i32 0, i32 5
  %52 = load i64, ptr %51, align 8, !tbaa !24
  %53 = load ptr, ptr %2, align 8, !tbaa !4
  %54 = getelementptr inbounds nuw %struct.git_zstream, ptr %53, i32 0, i32 4
  store i64 %52, ptr %54, align 8, !tbaa !23
  %55 = load ptr, ptr %2, align 8, !tbaa !4
  %56 = getelementptr inbounds nuw %struct.git_zstream, ptr %55, i32 0, i32 0
  %57 = getelementptr inbounds nuw %struct.z_stream_s, ptr %56, i32 0, i32 2
  %58 = load i64, ptr %57, align 8, !tbaa !22
  %59 = load ptr, ptr %2, align 8, !tbaa !4
  %60 = getelementptr inbounds nuw %struct.git_zstream, ptr %59, i32 0, i32 3
  store i64 %58, ptr %60, align 8, !tbaa !21
  %61 = load ptr, ptr %2, align 8, !tbaa !4
  %62 = getelementptr inbounds nuw %struct.git_zstream, ptr %61, i32 0, i32 0
  %63 = getelementptr inbounds nuw %struct.z_stream_s, ptr %62, i32 0, i32 0
  %64 = load ptr, ptr %63, align 8, !tbaa !18
  %65 = load ptr, ptr %2, align 8, !tbaa !4
  %66 = getelementptr inbounds nuw %struct.git_zstream, ptr %65, i32 0, i32 5
  store ptr %64, ptr %66, align 8, !tbaa !17
  %67 = load ptr, ptr %2, align 8, !tbaa !4
  %68 = getelementptr inbounds nuw %struct.git_zstream, ptr %67, i32 0, i32 0
  %69 = getelementptr inbounds nuw %struct.z_stream_s, ptr %68, i32 0, i32 3
  %70 = load ptr, ptr %69, align 8, !tbaa !20
  %71 = load ptr, ptr %2, align 8, !tbaa !4
  %72 = getelementptr inbounds nuw %struct.git_zstream, ptr %71, i32 0, i32 6
  store ptr %70, ptr %72, align 8, !tbaa !19
  %73 = load i64, ptr %3, align 8, !tbaa !29
  %74 = load ptr, ptr %2, align 8, !tbaa !4
  %75 = getelementptr inbounds nuw %struct.git_zstream, ptr %74, i32 0, i32 1
  %76 = load i64, ptr %75, align 8, !tbaa !25
  %77 = sub i64 %76, %73
  store i64 %77, ptr %75, align 8, !tbaa !25
  %78 = load i64, ptr %4, align 8, !tbaa !29
  %79 = load ptr, ptr %2, align 8, !tbaa !4
  %80 = getelementptr inbounds nuw %struct.git_zstream, ptr %79, i32 0, i32 2
  %81 = load i64, ptr %80, align 8, !tbaa !27
  %82 = sub i64 %81, %78
  store i64 %82, ptr %80, align 8, !tbaa !27
  call void @llvm.lifetime.end.p0(i64 8, ptr %4) #6
  call void @llvm.lifetime.end.p0(i64 8, ptr %3) #6
  ret void
}

; Function Attrs: nounwind uwtable
define internal void @zlib_pre_call(ptr noundef %0) #0 {
  %2 = alloca ptr, align 8
  store ptr %0, ptr %2, align 8, !tbaa !4
  %3 = load ptr, ptr %2, align 8, !tbaa !4
  %4 = getelementptr inbounds nuw %struct.git_zstream, ptr %3, i32 0, i32 5
  %5 = load ptr, ptr %4, align 8, !tbaa !17
  %6 = load ptr, ptr %2, align 8, !tbaa !4
  %7 = getelementptr inbounds nuw %struct.git_zstream, ptr %6, i32 0, i32 0
  %8 = getelementptr inbounds nuw %struct.z_stream_s, ptr %7, i32 0, i32 0
  store ptr %5, ptr %8, align 8, !tbaa !18
  %9 = load ptr, ptr %2, align 8, !tbaa !4
  %10 = getelementptr inbounds nuw %struct.git_zstream, ptr %9, i32 0, i32 6
  %11 = load ptr, ptr %10, align 8, !tbaa !19
  %12 = load ptr, ptr %2, align 8, !tbaa !4
  %13 = getelementptr inbounds nuw %struct.git_zstream, ptr %12, i32 0, i32 0
  %14 = getelementptr inbounds nuw %struct.z_stream_s, ptr %13, i32 0, i32 3
  store ptr %11, ptr %14, align 8, !tbaa !20
  %15 = load ptr, ptr %2, align 8, !tbaa !4
  %16 = getelementptr inbounds nuw %struct.git_zstream, ptr %15, i32 0, i32 3
  %17 = load i64, ptr %16, align 8, !tbaa !21
  %18 = load ptr, ptr %2, align 8, !tbaa !4
  %19 = getelementptr inbounds nuw %struct.git_zstream, ptr %18, i32 0, i32 0
  %20 = getelementptr inbounds nuw %struct.z_stream_s, ptr %19, i32 0, i32 2
  store i64 %17, ptr %20, align 8, !tbaa !22
  %21 = load ptr, ptr %2, align 8, !tbaa !4
  %22 = getelementptr inbounds nuw %struct.git_zstream, ptr %21, i32 0, i32 4
  %23 = load i64, ptr %22, align 8, !tbaa !23
  %24 = load ptr, ptr %2, align 8, !tbaa !4
  %25 = getelementptr inbounds nuw %struct.git_zstream, ptr %24, i32 0, i32 0
  %26 = getelementptr inbounds nuw %struct.z_stream_s, ptr %25, i32 0, i32 5
  store i64 %23, ptr %26, align 8, !tbaa !24
  %27 = load ptr, ptr %2, align 8, !tbaa !4
  %28 = getelementptr inbounds nuw %struct.git_zstream, ptr %27, i32 0, i32 1
  %29 = load i64, ptr %28, align 8, !tbaa !25
  %30 = call i32 @zlib_buf_cap(i64 noundef %29)
  %31 = load ptr, ptr %2, align 8, !tbaa !4
  %32 = getelementptr inbounds nuw %struct.git_zstream, ptr %31, i32 0, i32 0
  %33 = getelementptr inbounds nuw %struct.z_stream_s, ptr %32, i32 0, i32 1
  store i32 %30, ptr %33, align 8, !tbaa !26
  %34 = load ptr, ptr %2, align 8, !tbaa !4
  %35 = getelementptr inbounds nuw %struct.git_zstream, ptr %34, i32 0, i32 2
  %36 = load i64, ptr %35, align 8, !tbaa !27
  %37 = call i32 @zlib_buf_cap(i64 noundef %36)
  %38 = load ptr, ptr %2, align 8, !tbaa !4
  %39 = getelementptr inbounds nuw %struct.git_zstream, ptr %38, i32 0, i32 0
  %40 = getelementptr inbounds nuw %struct.z_stream_s, ptr %39, i32 0, i32 4
  store i32 %37, ptr %40, align 8, !tbaa !28
  ret void
}

; Function Attrs: nounwind uwtable
define dso_local void @git_inflate_init_gzip_only(ptr noundef %0) #0 {
  %2 = alloca ptr, align 8
  %3 = alloca i32, align 4
  %4 = alloca i32, align 4
  store ptr %0, ptr %2, align 8, !tbaa !4
  call void @llvm.lifetime.start.p0(i64 4, ptr %3) #6
  store i32 31, ptr %3, align 4, !tbaa !9
  call void @llvm.lifetime.start.p0(i64 4, ptr %4) #6
  %5 = load ptr, ptr %2, align 8, !tbaa !4
  call void @zlib_pre_call(ptr noundef %5)
  %6 = load ptr, ptr %2, align 8, !tbaa !4
  %7 = getelementptr inbounds nuw %struct.git_zstream, ptr %6, i32 0, i32 0
  %8 = call i32 @inflateInit2_(ptr noundef %7, i32 noundef 31, ptr noundef @.str, i32 noundef 112)
  store i32 %8, ptr %4, align 4, !tbaa !9
  %9 = load ptr, ptr %2, align 8, !tbaa !4
  call void @zlib_post_call(ptr noundef %9)
  %10 = load i32, ptr %4, align 4, !tbaa !9
  %11 = icmp eq i32 %10, 0
  br i1 %11, label %12, label %13

12:                                               ; preds = %1
  call void @llvm.lifetime.end.p0(i64 4, ptr %4) #6
  call void @llvm.lifetime.end.p0(i64 4, ptr %3) #6
  ret void

13:                                               ; preds = %1
  %14 = load i32, ptr %4, align 4, !tbaa !9
  %15 = call ptr @zerr_to_string(i32 noundef %14)
  %16 = load ptr, ptr %2, align 8, !tbaa !4
  %17 = getelementptr inbounds nuw %struct.git_zstream, ptr %16, i32 0, i32 0
  %18 = getelementptr inbounds nuw %struct.z_stream_s, ptr %17, i32 0, i32 6
  %19 = load ptr, ptr %18, align 8, !tbaa !11
  %20 = icmp ne ptr %19, null
  br i1 %20, label %21, label %26

21:                                               ; preds = %13
  %22 = load ptr, ptr %2, align 8, !tbaa !4
  %23 = getelementptr inbounds nuw %struct.git_zstream, ptr %22, i32 0, i32 0
  %24 = getelementptr inbounds nuw %struct.z_stream_s, ptr %23, i32 0, i32 6
  %25 = load ptr, ptr %24, align 8, !tbaa !11
  br label %27

26:                                               ; preds = %13
  br label %27

27:                                               ; preds = %26, %21
  %28 = phi ptr [ %25, %21 ], [ @.str.2, %26 ]
  call void (ptr, ...) @die(ptr noundef @.str.3, ptr noundef %15, ptr noundef %28) #7
  unreachable
}