; Function Attrs: nounwind uwtable
define dso_local void @git_inflate_init_gzip_only(ptr noundef initializes((0, 12), (16, 36), (40, 48)) %0) local_unnamed_addr #0 {
  %2 = getelementptr inbounds nuw i8, ptr %0, i64 144
  %3 = load ptr, ptr %2, align 8, !tbaa !4
  store ptr %3, ptr %0, align 8, !tbaa !14
  %4 = getelementptr inbounds nuw i8, ptr %0, i64 152
  %5 = load ptr, ptr %4, align 8, !tbaa !15
  %6 = getelementptr inbounds nuw i8, ptr %0, i64 24
  store ptr %5, ptr %6, align 8, !tbaa !16
  %7 = getelementptr inbounds nuw i8, ptr %0, i64 128
  %8 = load i64, ptr %7, align 8, !tbaa !17
  %9 = getelementptr inbounds nuw i8, ptr %0, i64 16
  store i64 %8, ptr %9, align 8, !tbaa !18
  %10 = getelementptr inbounds nuw i8, ptr %0, i64 136
  %11 = load i64, ptr %10, align 8, !tbaa !19
  %12 = getelementptr inbounds nuw i8, ptr %0, i64 40
  store i64 %11, ptr %12, align 8, !tbaa !20
  %13 = getelementptr inbounds nuw i8, ptr %0, i64 112
  %14 = load i64, ptr %13, align 8, !tbaa !21
  %15 = tail call i64 @llvm.umin.i64(i64 %14, i64 1073741824)
  %16 = trunc nuw nsw i64 %15 to i32
  %17 = getelementptr inbounds nuw i8, ptr %0, i64 8
  store i32 %16, ptr %17, align 8, !tbaa !22
  %18 = getelementptr inbounds nuw i8, ptr %0, i64 120
  %19 = load i64, ptr %18, align 8, !tbaa !23
  %20 = tail call i64 @llvm.umin.i64(i64 %19, i64 1073741824)
  %21 = trunc nuw nsw i64 %20 to i32
  %22 = getelementptr inbounds nuw i8, ptr %0, i64 32
  store i32 %21, ptr %22, align 8, !tbaa !24
  %23 = tail call i32 @inflateInit2_(ptr noundef nonnull %0, i32 noundef 31, ptr noundef nonnull @.str, i32 noundef 112) #6
  %24 = load ptr, ptr %0, align 8, !tbaa !14
  %25 = load ptr, ptr %2, align 8, !tbaa !4
  %26 = ptrtoint ptr %24 to i64
  %27 = ptrtoint ptr %25 to i64
  %28 = sub i64 %26, %27
  %29 = load ptr, ptr %6, align 8, !tbaa !16
  %30 = load ptr, ptr %4, align 8, !tbaa !15
  %31 = ptrtoint ptr %29 to i64
  %32 = ptrtoint ptr %30 to i64
  %33 = sub i64 %31, %32
  %34 = load i64, ptr %12, align 8, !tbaa !20
  %35 = load i64, ptr %10, align 8, !tbaa !19
  %36 = add i64 %35, %33
  %.not.i = icmp eq i64 %34, %36
  br i1 %.not.i, label %38, label %37

37:                                               ; preds = %1
  tail call void (ptr, i32, ptr, ...) @BUG_fl(ptr noundef nonnull @.str.11, i32 noundef 56, ptr noundef nonnull @.str.12) #7
  unreachable

38:                                               ; preds = %1
  %39 = load i64, ptr %9, align 8, !tbaa !18
  %40 = load i64, ptr %7, align 8, !tbaa !17
  %41 = add i64 %40, %28
  %.not21.i = icmp eq i64 %39, %41
  br i1 %.not21.i, label %zlib_post_call.exit, label %42

42:                                               ; preds = %38
  tail call void (ptr, i32, ptr, ...) @BUG_fl(ptr noundef nonnull @.str.11, i32 noundef 58, ptr noundef nonnull @.str.13) #7
  unreachable

zlib_post_call.exit:                              ; preds = %38
  store i64 %34, ptr %10, align 8, !tbaa !19
  store i64 %39, ptr %7, align 8, !tbaa !17
  store ptr %24, ptr %2, align 8, !tbaa !4
  store ptr %29, ptr %4, align 8, !tbaa !15
  %43 = load i64, ptr %13, align 8, !tbaa !21
  %44 = sub i64 %43, %28
  store i64 %44, ptr %13, align 8, !tbaa !21
  %45 = load i64, ptr %18, align 8, !tbaa !23
  %46 = sub i64 %45, %33
  store i64 %46, ptr %18, align 8, !tbaa !23
  %47 = icmp eq i32 %23, 0
  br i1 %47, label %48, label %49

48:                                               ; preds = %zlib_post_call.exit
  ret void

49:                                               ; preds = %zlib_post_call.exit
  %50 = tail call fastcc ptr @zerr_to_string(i32 noundef %23)
  %51 = getelementptr inbounds nuw i8, ptr %0, i64 48
  %52 = load ptr, ptr %51, align 8, !tbaa !25
  %.not = icmp eq ptr %52, null
  %spec.select = select i1 %.not, ptr @.str.2, ptr %52
  tail call void (ptr, ...) @die(ptr noundef nonnull @.str.3, ptr noundef nonnull %50, ptr noundef nonnull %spec.select) #7
  unreachable
}